target datalayout = "e-m:e-p270:32:32-p271:32:32-p272:64:64-i64:64-i128:128-f80:128-n8:16:32:64-S128"
target triple = "x86_64-pc-linux-gnu"

%struct._dcerpc_info = type { ptr, i32, i64, i8, i8, i8, i32, i32, i32, i32, i32, i32, i32, i32, ptr, ptr, ptr, ptr, %struct.anon }
%struct.anon = type { i8, ptr, ptr, ptr, i8 }
%struct._packet_info = type { ptr, ptr, i32, i32, %struct.nstime_t, %struct.nstime_t, %struct.nstime_t, i8, ptr, ptr, ptr, ptr, %struct._address, %struct._address, %struct._address, %struct._address, %struct._address, %struct._address, i32, ptr, i8, [3 x i8], %struct.anon.0, i32, i32, i32, i32, ptr, i8, ptr, ptr, i16, i16, i32, i32, i16, i32, i32, ptr, ptr, ptr, i8, i8, i16, i16, i16, i32, i16, i16, ptr, ptr, ptr, ptr, ptr, i32, i32 }
%struct.nstime_t = type { i64, i32 }
%struct._address = type { i32, i32, ptr, ptr }
%struct.anon.0 = type { i8, [3 x i8] }

@hf_fileexp_flags = internal global i32 0, align 4
@ett_fileexp_afsflags = internal global i32 0, align 4
@.str.351 = private unnamed_addr constant [10 x i8] c"AfsFlags:\00", align 1
@.str.352 = private unnamed_addr constant [8 x i8] c" Flags=\00", align 1
@.str.353 = private unnamed_addr constant [13 x i8] c":RETURNTOKEN\00", align 1
@.str.354 = private unnamed_addr constant [16 x i8] c":TOKENJUMPQUEUE\00", align 1
@.str.355 = private unnamed_addr constant [11 x i8] c":SKIPTOKEN\00", align 1
@.str.356 = private unnamed_addr constant [12 x i8] c":NOOPTIMISM\00", align 1
@.str.357 = private unnamed_addr constant [9 x i8] c":TOKENID\00", align 1
@.str.358 = private unnamed_addr constant [15 x i8] c":RETURNBLOCKER\00", align 1
@.str.359 = private unnamed_addr constant [12 x i8] c":ASYNCGRANT\00", align 1
@.str.360 = private unnamed_addr constant [10 x i8] c":NOREVOKE\00", align 1
@.str.361 = private unnamed_addr constant [18 x i8] c":MOVE_REESTABLISH\00", align 1
@.str.362 = private unnamed_addr constant [20 x i8] c":SERVER_REESTABLISH\00", align 1
@.str.363 = private unnamed_addr constant [14 x i8] c":NO_NEW_EPOCH\00", align 1
@.str.364 = private unnamed_addr constant [16 x i8] c":MOVE_SOURCE_OK\00", align 1
@.str.365 = private unnamed_addr constant [6 x i8] c":SYNC\00", align 1
@.str.366 = private unnamed_addr constant [6 x i8] c":ZERO\00", align 1
@.str.367 = private unnamed_addr constant [12 x i8] c":SKIPSTATUS\00", align 1
@.str.368 = private unnamed_addr constant [18 x i8] c":FORCEREVOCATIONS\00", align 1
@.str.369 = private unnamed_addr constant [17 x i8] c":FORCEVOLQUIESCE\00", align 1
@.str.370 = private unnamed_addr constant [13 x i8] c":SEC_SERVICE\00", align 1
@.str.371 = private unnamed_addr constant [20 x i8] c":CONTEXT_NEW_ACL_IF\00", align 1

; Function Attrs: null_pointer_is_valid sspstrong uwtable
define internal i32 @dissect_afsFlags(ptr noundef %0, i32 noundef %1, ptr noundef %2, ptr noundef %3, ptr noundef %4, ptr noundef %5) #0 {
  %7 = alloca i32, align 4
  %8 = alloca ptr, align 8
  %9 = alloca i32, align 4
  %10 = alloca ptr, align 8
  %11 = alloca ptr, align 8
  %12 = alloca ptr, align 8
  %13 = alloca ptr, align 8
  %14 = alloca ptr, align 8
  %15 = alloca ptr, align 8
  %16 = alloca i32, align 4
  %17 = alloca i32, align 4
  %18 = alloca i32, align 4
  store ptr %0, ptr %8, align 8
  store i32 %1, ptr %9, align 4
  store ptr %2, ptr %10, align 8
  store ptr %3, ptr %11, align 8
  store ptr %4, ptr %12, align 8
  store ptr %5, ptr %13, align 8
  call void @llvm.lifetime.start.p0(i64 8, ptr %14) #4
  store ptr null, ptr %14, align 8
  call void @llvm.lifetime.start.p0(i64 8, ptr %15) #4
  store ptr null, ptr %15, align 8
  call void @llvm.lifetime.start.p0(i64 4, ptr %16) #4
  %19 = load i32, ptr %9, align 4
  store i32 %19, ptr %16, align 4
  call void @llvm.lifetime.start.p0(i64 4, ptr %17) #4
  %20 = load ptr, ptr %12, align 8
  %21 = getelementptr inbounds nuw %struct._dcerpc_info, ptr %20, i32 0, i32 4
  %22 = load i8, ptr %21, align 1, !range !6, !noundef !7
  %23 = trunc i8 %22 to i1
  br i1 %23, label %24, label %26

24:                                               ; preds = %6
  %25 = load i32, ptr %9, align 4
  store i32 %25, ptr %7, align 4
  store i32 1, ptr %18, align 4
  br label %208

26:                                               ; preds = %6
  %27 = load ptr, ptr %11, align 8
  %28 = icmp ne ptr %27, null
  br i1 %28, label %29, label %35

29:                                               ; preds = %26
  %30 = load ptr, ptr %11, align 8
  %31 = load ptr, ptr %8, align 8
  %32 = load i32, ptr %9, align 4
  %33 = load i32, ptr @ett_fileexp_afsflags, align 4
  %34 = call ptr @proto_tree_add_subtree(ptr noundef %30, ptr noundef %31, i32 noundef %32, i32 noundef -1, i32 noundef %33, ptr noundef %14, ptr noundef @.str.351)
  store ptr %34, ptr %15, align 8
  br label %35

35:                                               ; preds = %29, %26
  %36 = load ptr, ptr %8, align 8
  %37 = load i32, ptr %9, align 4
  %38 = load ptr, ptr %10, align 8
  %39 = load ptr, ptr %15, align 8
  %40 = load ptr, ptr %12, align 8
  %41 = load ptr, ptr %13, align 8
  %42 = load i32, ptr @hf_fileexp_flags, align 4
  %43 = call i32 @dissect_ndr_uint32(ptr noundef %36, i32 noundef %37, ptr noundef %38, ptr noundef %39, ptr noundef %40, ptr noundef %41, i32 noundef %42, ptr noundef %17)
  store i32 %43, ptr %9, align 4
  %44 = load i32, ptr %17, align 4
  %45 = icmp ne i32 %44, 0
  br i1 %45, label %46, label %202

46:                                               ; preds = %35
  %47 = load ptr, ptr %10, align 8
  %48 = getelementptr inbounds nuw %struct._packet_info, ptr %47, i32 0, i32 1
  %49 = load ptr, ptr %48, align 8
  call void @col_append_str(ptr noundef %49, i32 noundef 25, ptr noundef @.str.352)
  %50 = load i32, ptr %17, align 4
  %51 = and i32 %50, 1
  %52 = icmp eq i32 %51, 1
  br i1 %52, label %53, label %57

53:                                               ; preds = %46
  %54 = load ptr, ptr %10, align 8
  %55 = getelementptr inbounds nuw %struct._packet_info, ptr %54, i32 0, i32 1
  %56 = load ptr, ptr %55, align 8
  call void @col_append_str(ptr noundef %56, i32 noundef 25, ptr noundef @.str.353)
  br label %57

57:                                               ; preds = %53, %46
  %58 = load i32, ptr %17, align 4
  %59 = and i32 %58, 2
  %60 = icmp eq i32 %59, 2
  br i1 %60, label %61, label %65

61:                                               ; preds = %57
  %62 = load ptr, ptr %10, align 8
  %63 = getelementptr inbounds nuw %struct._packet_info, ptr %62, i32 0, i32 1
  %64 = load ptr, ptr %63, align 8
  call void @col_append_str(ptr noundef %64, i32 noundef 25, ptr noundef @.str.354)
  br label %65

65:                                               ; preds = %61, %57
  %66 = load i32, ptr %17, align 4
  %67 = and i32 %66, 4
  %68 = icmp eq i32 %67, 4
  br i1 %68, label %69, label %73

69:                                               ; preds = %65
  %70 = load ptr, ptr %10, align 8
  %71 = getelementptr inbounds nuw %struct._packet_info, ptr %70, i32 0, i32 1
  %72 = load ptr, ptr %71, align 8
  call void @col_append_str(ptr noundef %72, i32 noundef 25, ptr noundef @.str.355)
  br label %73

73:                                               ; preds = %69, %65
  %74 = load i32, ptr %17, align 4
  %75 = and i32 %74, 8
  %76 = icmp eq i32 %75, 8
  br i1 %76, label %77, label %81

77:                                               ; preds = %73
  %78 = load ptr, ptr %10, align 8
  %79 = getelementptr inbounds nuw %struct._packet_info, ptr %78, i32 0, i32 1
  %80 = load ptr, ptr %79, align 8
  call void @col_append_str(ptr noundef %80, i32 noundef 25, ptr noundef @.str.356)
  br label %81

81:                                               ; preds = %77, %73
  %82 = load i32, ptr %17, align 4
  %83 = and i32 %82, 16
  %84 = icmp eq i32 %83, 16
  br i1 %84, label %85, label %89

85:                                               ; preds = %81
  %86 = load ptr, ptr %10, align 8
  %87 = getelementptr inbounds nuw %struct._packet_info, ptr %86, i32 0, i32 1
  %88 = load ptr, ptr %87, align 8
  call void @col_append_str(ptr noundef %88, i32 noundef 25, ptr noundef @.str.357)
  br label %89

89:                                               ; preds = %85, %81
  %90 = load i32, ptr %17, align 4
  %91 = and i32 %90, 32
  %92 = icmp eq i32 %91, 32
  br i1 %92, label %93, label %97

93:                                               ; preds = %89
  %94 = load ptr, ptr %10, align 8
  %95 = getelementptr inbounds nuw %struct._packet_info, ptr %94, i32 0, i32 1
  %96 = load ptr, ptr %95, align 8
  call void @col_append_str(ptr noundef %96, i32 noundef 25, ptr noundef @.str.358)
  br label %97

97:                                               ; preds = %93, %89
  %98 = load i32, ptr %17, align 4
  %99 = and i32 %98, 64
  %100 = icmp eq i32 %99, 64
  br i1 %100, label %101, label %105

101:                                              ; preds = %97
  %102 = load ptr, ptr %10, align 8
  %103 = getelementptr inbounds nuw %struct._packet_info, ptr %102, i32 0, i32 1
  %104 = load ptr, ptr %103, align 8
  call void @col_append_str(ptr noundef %104, i32 noundef 25, ptr noundef @.str.359)
  br label %105

105:                                              ; preds = %101, %97
  %106 = load i32, ptr %17, align 4
  %107 = and i32 %106, 128
  %108 = icmp eq i32 %107, 128
  br i1 %108, label %109, label %113

109:                                              ; preds = %105
  %110 = load ptr, ptr %10, align 8
  %111 = getelementptr inbounds nuw %struct._packet_info, ptr %110, i32 0, i32 1
  %112 = load ptr, ptr %111, align 8
  call void @col_append_str(ptr noundef %112, i32 noundef 25, ptr noundef @.str.360)
  br label %113

113:                                              ; preds = %109, %105
  %114 = load i32, ptr %17, align 4
  %115 = and i32 %114, 256
  %116 = icmp eq i32 %115, 256
  br i1 %116, label %117, label %121

117:                                              ; preds = %113
  %118 = load ptr, ptr %10, align 8
  %119 = getelementptr inbounds nuw %struct._packet_info, ptr %118, i32 0, i32 1
  %120 = load ptr, ptr %119, align 8
  call void @col_append_str(ptr noundef %120, i32 noundef 25, ptr noundef @.str.361)
  br label %121

121:                                              ; preds = %117, %113
  %122 = load i32, ptr %17, align 4
  %123 = and i32 %122, 512
  %124 = icmp eq i32 %123, 512
  br i1 %124, label %125, label %129

125:                                              ; preds = %121
  %126 = load ptr, ptr %10, align 8
  %127 = getelementptr inbounds nuw %struct._packet_info, ptr %126, i32 0, i32 1
  %128 = load ptr, ptr %127, align 8
  call void @col_append_str(ptr noundef %128, i32 noundef 25, ptr noundef @.str.362)
  br label %129

129:                                              ; preds = %125, %121
  %130 = load i32, ptr %17, align 4
  %131 = and i32 %130, 1024
  %132 = icmp eq i32 %131, 1024
  br i1 %132, label %133, label %137

133:                                              ; preds = %129
  %134 = load ptr, ptr %10, align 8
  %135 = getelementptr inbounds nuw %struct._packet_info, ptr %134, i32 0, i32 1
  %136 = load ptr, ptr %135, align 8
  call void @col_append_str(ptr noundef %136, i32 noundef 25, ptr noundef @.str.363)
  br label %137

137:                                              ; preds = %133, %129
  %138 = load i32, ptr %17, align 4
  %139 = and i32 %138, 2048
  %140 = icmp eq i32 %139, 2048
  br i1 %140, label %141, label %145

141:                                              ; preds = %137
  %142 = load ptr, ptr %10, align 8
  %143 = getelementptr inbounds nuw %struct._packet_info, ptr %142, i32 0, i32 1
  %144 = load ptr, ptr %143, align 8
  call void @col_append_str(ptr noundef %144, i32 noundef 25, ptr noundef @.str.364)
  br label %145

145:                                              ; preds = %141, %137
  %146 = load i32, ptr %17, align 4
  %147 = and i32 %146, 4096
  %148 = icmp eq i32 %147, 4096
  br i1 %148, label %149, label %153

149:                                              ; preds = %145
  %150 = load ptr, ptr %10, align 8
  %151 = getelementptr inbounds nuw %struct._packet_info, ptr %150, i32 0, i32 1
  %152 = load ptr, ptr %151, align 8
  call void @col_append_str(ptr noundef %152, i32 noundef 25, ptr noundef @.str.365)
  br label %153

153:                                              ; preds = %149, %145
  %154 = load i32, ptr %17, align 4
  %155 = and i32 %154, 8192
  %156 = icmp eq i32 %155, 8192
  br i1 %156, label %157, label %161

157:                                              ; preds = %153
  %158 = load ptr, ptr %10, align 8
  %159 = getelementptr inbounds nuw %struct._packet_info, ptr %158, i32 0, i32 1
  %160 = load ptr, ptr %159, align 8
  call void @col_append_str(ptr noundef %160, i32 noundef 25, ptr noundef @.str.366)
  br label %161

161:                                              ; preds = %157, %153
  %162 = load i32, ptr %17, align 4
  %163 = and i32 %162, 16384
  %164 = icmp eq i32 %163, 16384
  br i1 %164, label %165, label %169

165:                                              ; preds = %161
  %166 = load ptr, ptr %10, align 8
  %167 = getelementptr inbounds nuw %struct._packet_info, ptr %166, i32 0, i32 1
  %168 = load ptr, ptr %167, align 8
  call void @col_append_str(ptr noundef %168, i32 noundef 25, ptr noundef @.str.367)
  br label %169

169:                                              ; preds = %165, %161
  %170 = load i32, ptr %17, align 4
  %171 = and i32 %170, 32768
  %172 = icmp eq i32 %171, 32768
  br i1 %172, label %173, label %177

173:                                              ; preds = %169
  %174 = load ptr, ptr %10, align 8
  %175 = getelementptr inbounds nuw %struct._packet_info, ptr %174, i32 0, i32 1
  %176 = load ptr, ptr %175, align 8
  call void @col_append_str(ptr noundef %176, i32 noundef 25, ptr noundef @.str.368)
  br label %177

177:                                              ; preds = %173, %169
  %178 = load i32, ptr %17, align 4
  %179 = and i32 %178, 65536
  %180 = icmp eq i32 %179, 65536
  br i1 %180, label %181, label %185

181:                                              ; preds = %177
  %182 = load ptr, ptr %10, align 8
  %183 = getelementptr inbounds nuw %struct._packet_info, ptr %182, i32 0, i32 1
  %184 = load ptr, ptr %183, align 8
  call void @col_append_str(ptr noundef %184, i32 noundef 25, ptr noundef @.str.369)
  br label %185

185:                                              ; preds = %181, %177
  %186 = load i32, ptr %17, align 4
  %187 = and i32 %186, 1
  %188 = icmp eq i32 %187, 1
  br i1 %188, label %189, label %193

189:                                              ; preds = %185
  %190 = load ptr, ptr %10, align 8
  %191 = getelementptr inbounds nuw %struct._packet_info, ptr %190, i32 0, i32 1
  %192 = load ptr, ptr %191, align 8
  call void @col_append_str(ptr noundef %192, i32 noundef 25, ptr noundef @.str.370)
  br label %193

193:                                              ; preds = %189, %185
  %194 = load i32, ptr %17, align 4
  %195 = and i32 %194, 8
  %196 = icmp eq i32 %195, 8
  br i1 %196, label %197, label %201

197:                                              ; preds = %193
  %198 = load ptr, ptr %10, align 8
  %199 = getelementptr inbounds nuw %struct._packet_info, ptr %198, i32 0, i32 1
  %200 = load ptr, ptr %199, align 8
  call void @col_append_str(ptr noundef %200, i32 noundef 25, ptr noundef @.str.371)
  br label %201

201:                                              ; preds = %197, %193
  br label %202

202:                                              ; preds = %201, %35
  %203 = load ptr, ptr %14, align 8
  %204 = load i32, ptr %9, align 4
  %205 = load i32, ptr %16, align 4
  %206 = sub i32 %204, %205
  call void @proto_item_set_len(ptr noundef %203, i32 noundef %206)
  %207 = load i32, ptr %9, align 4
  store i32 %207, ptr %7, align 4
  store i32 1, ptr %18, align 4
  br label %208

208:                                              ; preds = %202, %24
  call void @llvm.lifetime.end.p0(i64 4, ptr %17) #4
  call void @llvm.lifetime.end.p0(i64 4, ptr %16) #4
  call void @llvm.lifetime.end.p0(i64 8, ptr %15) #4
  call void @llvm.lifetime.end.p0(i64 8, ptr %14) #4
  %209 = load i32, ptr %7, align 4
  ret i32 %209
}