; Function Attrs: null_pointer_is_valid sspstrong uwtable
define internal i32 @dissect_afsFlags(ptr noundef %0, i32 noundef %1, ptr noundef %2, ptr noundef %3, ptr noundef %4, ptr noundef %5) #0 {
  %7 = alloca ptr, align 8
  %8 = alloca i32, align 4
  call void @llvm.lifetime.start.p0(i64 8, ptr nonnull %7) #4
  store ptr null, ptr %7, align 8
  call void @llvm.lifetime.start.p0(i64 4, ptr nonnull %8) #4
  %9 = getelementptr inbounds nuw i8, ptr %4, i64 25
  %10 = load i8, ptr %9, align 1, !range !6, !noundef !7
  %11 = trunc nuw i8 %10 to i1
  br i1 %11, label %120, label %12

12:                                               ; preds = %6
  %.not = icmp eq ptr %3, null
  br i1 %.not, label %16, label %13

13:                                               ; preds = %12
  %14 = load i32, ptr @ett_fileexp_afsflags, align 4
  %15 = call ptr @proto_tree_add_subtree(ptr noundef nonnull %3, ptr noundef %0, i32 noundef %1, i32 noundef -1, i32 noundef %14, ptr noundef nonnull %7, ptr noundef nonnull @.str.351)
  br label %16

16:                                               ; preds = %13, %12
  %.036 = phi ptr [ %15, %13 ], [ null, %12 ]
  %17 = load i32, ptr @hf_fileexp_flags, align 4
  %18 = call i32 @dissect_ndr_uint32(ptr noundef %0, i32 noundef %1, ptr noundef %2, ptr noundef %.036, ptr noundef %4, ptr noundef %5, i32 noundef %17, ptr noundef nonnull %8)
  %19 = load i32, ptr %8, align 4
  %.not38 = icmp eq i32 %19, 0
  br i1 %.not38, label %117, label %20

20:                                               ; preds = %16
  %21 = getelementptr inbounds nuw i8, ptr %2, i64 8
  %22 = load ptr, ptr %21, align 8
  call void @col_append_str(ptr noundef %22, i32 noundef 25, ptr noundef nonnull @.str.352)
  %23 = load i32, ptr %8, align 4
  %24 = and i32 %23, 1
  %.not39 = icmp eq i32 %24, 0
  br i1 %.not39, label %27, label %25

25:                                               ; preds = %20
  %26 = load ptr, ptr %21, align 8
  call void @col_append_str(ptr noundef %26, i32 noundef 25, ptr noundef nonnull @.str.353)
  %.pre = load i32, ptr %8, align 4
  br label %27

27:                                               ; preds = %25, %20
  %28 = phi i32 [ %.pre, %25 ], [ %23, %20 ]
  %29 = and i32 %28, 2
  %.not40 = icmp eq i32 %29, 0
  br i1 %.not40, label %32, label %30

30:                                               ; preds = %27
  %31 = load ptr, ptr %21, align 8
  call void @col_append_str(ptr noundef %31, i32 noundef 25, ptr noundef nonnull @.str.354)
  %.pre58 = load i32, ptr %8, align 4
  br label %32

32:                                               ; preds = %30, %27
  %33 = phi i32 [ %.pre58, %30 ], [ %28, %27 ]
  %34 = and i32 %33, 4
  %.not41 = icmp eq i32 %34, 0
  br i1 %.not41, label %37, label %35

35:                                               ; preds = %32
  %36 = load ptr, ptr %21, align 8
  call void @col_append_str(ptr noundef %36, i32 noundef 25, ptr noundef nonnull @.str.355)
  %.pre59 = load i32, ptr %8, align 4
  br label %37

37:                                               ; preds = %35, %32
  %38 = phi i32 [ %.pre59, %35 ], [ %33, %32 ]
  %39 = and i32 %38, 8
  %.not42 = icmp eq i32 %39, 0
  br i1 %.not42, label %42, label %40

40:                                               ; preds = %37
  %41 = load ptr, ptr %21, align 8
  call void @col_append_str(ptr noundef %41, i32 noundef 25, ptr noundef nonnull @.str.356)
  %.pre60 = load i32, ptr %8, align 4
  br label %42

42:                                               ; preds = %40, %37
  %43 = phi i32 [ %.pre60, %40 ], [ %38, %37 ]
  %44 = and i32 %43, 16
  %.not43 = icmp eq i32 %44, 0
  br i1 %.not43, label %47, label %45

45:                                               ; preds = %42
  %46 = load ptr, ptr %21, align 8
  call void @col_append_str(ptr noundef %46, i32 noundef 25, ptr noundef nonnull @.str.357)
  %.pre61 = load i32, ptr %8, align 4
  br label %47

47:                                               ; preds = %45, %42
  %48 = phi i32 [ %.pre61, %45 ], [ %43, %42 ]
  %49 = and i32 %48, 32
  %.not44 = icmp eq i32 %49, 0
  br i1 %.not44, label %52, label %50

50:                                               ; preds = %47
  %51 = load ptr, ptr %21, align 8
  call void @col_append_str(ptr noundef %51, i32 noundef 25, ptr noundef nonnull @.str.358)
  %.pre62 = load i32, ptr %8, align 4
  br label %52

52:                                               ; preds = %50, %47
  %53 = phi i32 [ %.pre62, %50 ], [ %48, %47 ]
  %54 = and i32 %53, 64
  %.not45 = icmp eq i32 %54, 0
  br i1 %.not45, label %57, label %55

55:                                               ; preds = %52
  %56 = load ptr, ptr %21, align 8
  call void @col_append_str(ptr noundef %56, i32 noundef 25, ptr noundef nonnull @.str.359)
  %.pre63 = load i32, ptr %8, align 4
  br label %57

57:                                               ; preds = %55, %52
  %58 = phi i32 [ %.pre63, %55 ], [ %53, %52 ]
  %59 = and i32 %58, 128
  %.not46 = icmp eq i32 %59, 0
  br i1 %.not46, label %62, label %60

60:                                               ; preds = %57
  %61 = load ptr, ptr %21, align 8
  call void @col_append_str(ptr noundef %61, i32 noundef 25, ptr noundef nonnull @.str.360)
  %.pre64 = load i32, ptr %8, align 4
  br label %62

62:                                               ; preds = %60, %57
  %63 = phi i32 [ %.pre64, %60 ], [ %58, %57 ]
  %64 = and i32 %63, 256
  %.not47 = icmp eq i32 %64, 0
  br i1 %.not47, label %67, label %65

65:                                               ; preds = %62
  %66 = load ptr, ptr %21, align 8
  call void @col_append_str(ptr noundef %66, i32 noundef 25, ptr noundef nonnull @.str.361)
  %.pre65 = load i32, ptr %8, align 4
  br label %67

67:                                               ; preds = %65, %62
  %68 = phi i32 [ %.pre65, %65 ], [ %63, %62 ]
  %69 = and i32 %68, 512
  %.not48 = icmp eq i32 %69, 0
  br i1 %.not48, label %72, label %70

70:                                               ; preds = %67
  %71 = load ptr, ptr %21, align 8
  call void @col_append_str(ptr noundef %71, i32 noundef 25, ptr noundef nonnull @.str.362)
  %.pre66 = load i32, ptr %8, align 4
  br label %72

72:                                               ; preds = %70, %67
  %73 = phi i32 [ %.pre66, %70 ], [ %68, %67 ]
  %74 = and i32 %73, 1024
  %.not49 = icmp eq i32 %74, 0
  br i1 %.not49, label %77, label %75

75:                                               ; preds = %72
  %76 = load ptr, ptr %21, align 8
  call void @col_append_str(ptr noundef %76, i32 noundef 25, ptr noundef nonnull @.str.363)
  %.pre67 = load i32, ptr %8, align 4
  br label %77

77:                                               ; preds = %75, %72
  %78 = phi i32 [ %.pre67, %75 ], [ %73, %72 ]
  %79 = and i32 %78, 2048
  %.not50 = icmp eq i32 %79, 0
  br i1 %.not50, label %82, label %80

80:                                               ; preds = %77
  %81 = load ptr, ptr %21, align 8
  call void @col_append_str(ptr noundef %81, i32 noundef 25, ptr noundef nonnull @.str.364)
  %.pre68 = load i32, ptr %8, align 4
  br label %82

82:                                               ; preds = %80, %77
  %83 = phi i32 [ %.pre68, %80 ], [ %78, %77 ]
  %84 = and i32 %83, 4096
  %.not51 = icmp eq i32 %84, 0
  br i1 %.not51, label %87, label %85

85:                                               ; preds = %82
  %86 = load ptr, ptr %21, align 8
  call void @col_append_str(ptr noundef %86, i32 noundef 25, ptr noundef nonnull @.str.365)
  %.pre69 = load i32, ptr %8, align 4
  br label %87

87:                                               ; preds = %85, %82
  %88 = phi i32 [ %.pre69, %85 ], [ %83, %82 ]
  %89 = and i32 %88, 8192
  %.not52 = icmp eq i32 %89, 0
  br i1 %.not52, label %92, label %90

90:                                               ; preds = %87
  %91 = load ptr, ptr %21, align 8
  call void @col_append_str(ptr noundef %91, i32 noundef 25, ptr noundef nonnull @.str.366)
  %.pre70 = load i32, ptr %8, align 4
  br label %92

92:                                               ; preds = %90, %87
  %93 = phi i32 [ %.pre70, %90 ], [ %88, %87 ]
  %94 = and i32 %93, 16384
  %.not53 = icmp eq i32 %94, 0
  br i1 %.not53, label %97, label %95

95:                                               ; preds = %92
  %96 = load ptr, ptr %21, align 8
  call void @col_append_str(ptr noundef %96, i32 noundef 25, ptr noundef nonnull @.str.367)
  %.pre71 = load i32, ptr %8, align 4
  br label %97

97:                                               ; preds = %95, %92
  %98 = phi i32 [ %.pre71, %95 ], [ %93, %92 ]
  %99 = and i32 %98, 32768
  %.not54 = icmp eq i32 %99, 0
  br i1 %.not54, label %102, label %100

100:                                              ; preds = %97
  %101 = load ptr, ptr %21, align 8
  call void @col_append_str(ptr noundef %101, i32 noundef 25, ptr noundef nonnull @.str.368)
  %.pre72 = load i32, ptr %8, align 4
  br label %102

102:                                              ; preds = %100, %97
  %103 = phi i32 [ %.pre72, %100 ], [ %98, %97 ]
  %104 = and i32 %103, 65536
  %.not55 = icmp eq i32 %104, 0
  br i1 %.not55, label %107, label %105

105:                                              ; preds = %102
  %106 = load ptr, ptr %21, align 8
  call void @col_append_str(ptr noundef %106, i32 noundef 25, ptr noundef nonnull @.str.369)
  %.pre73 = load i32, ptr %8, align 4
  br label %107

107:                                              ; preds = %105, %102
  %108 = phi i32 [ %.pre73, %105 ], [ %103, %102 ]
  %109 = and i32 %108, 1
  %.not56 = icmp eq i32 %109, 0
  br i1 %.not56, label %112, label %110

110:                                              ; preds = %107
  %111 = load ptr, ptr %21, align 8
  call void @col_append_str(ptr noundef %111, i32 noundef 25, ptr noundef nonnull @.str.370)
  %.pre74 = load i32, ptr %8, align 4
  br label %112

112:                                              ; preds = %110, %107
  %113 = phi i32 [ %.pre74, %110 ], [ %108, %107 ]
  %114 = and i32 %113, 8
  %.not57 = icmp eq i32 %114, 0
  br i1 %.not57, label %117, label %115

115:                                              ; preds = %112
  %116 = load ptr, ptr %21, align 8
  call void @col_append_str(ptr noundef %116, i32 noundef 25, ptr noundef nonnull @.str.371)
  br label %117

117:                                              ; preds = %112, %115, %16
  %118 = load ptr, ptr %7, align 8
  %119 = sub i32 %18, %1
  call void @proto_item_set_len(ptr noundef %118, i32 noundef %119)
  br label %120

120:                                              ; preds = %6, %117
  %.0 = phi i32 [ %18, %117 ], [ %1, %6 ]
  call void @llvm.lifetime.end.p0(i64 4, ptr nonnull %8) #4
  call void @llvm.lifetime.end.p0(i64 8, ptr nonnull %7) #4
  ret i32 %.0
}